target datalayout = "e-m:e-p270:32:32-p271:32:32-p272:64:64-i64:64-i128:128-f80:128-n8:16:32:64-S128"
target triple = "x86_64-pc-linux-gnu"

%struct.WOLFSSL = type <{ ptr, ptr, ptr, ptr, [48 x i8], [48 x i8], ptr, ptr, ptr, ptr, ptr, ptr, ptr, ptr, ptr, ptr, ptr, ptr, ptr, i32, [4 x i8], %struct.WOLFSSL_CIPHER, ptr, %struct.Ciphers, %struct.Ciphers, [8 x i8], %struct.Buffers, ptr, ptr, %struct.WOLFSSL_ALERT_HISTORY, %struct.WOLFSSL_ALERT, i32, i32, i32, i32, i32, i32, i32, i16, [2 x i8], i32, i8, %struct.RecordLayerHeader, %struct.MsgsReceived, %struct.ProtocolVersion, %struct.ProtocolVersion, %struct.CipherSpecs, [2 x i8], %struct.Keys, %struct.Options, ptr, i8, i8, i16, [10 x i16], i8, i8, i16, i16, [38 x i8], i32, i32, [4 x i8], ptr, i8, i8, [6 x i8], ptr, ptr, i16, i8, i8, i32, i8, [3 x i8], i32, %struct.OneTimeAuth, ptr }>
%struct.WOLFSSL_CIPHER = type { i8, i8, ptr }
%struct.Ciphers = type { ptr, ptr, ptr, ptr, i8, i8 }
%struct.Buffers = type { %struct.bufferStatic, %struct.bufferStatic, %struct.WOLFSSL_BUFFER_INFO, %struct.WOLFSSL_BUFFER_INFO, %struct.WOLFSSL_BUFFER_INFO, %struct.WOLFSSL_BUFFER_INFO, i32, i32, i8, i8, i8, i8, %struct.WOLFSSL_BUFFER_INFO, %struct.WOLFSSL_BUFFER_INFO, %struct.WOLFSSL_BUFFER_INFO, %struct.WOLFSSL_BUFFER_INFO, ptr, ptr, ptr, i8, i8, i32, i32, ptr, i32, [1 x ptr] }
%struct.bufferStatic = type { [5 x i8], ptr, i32, i32, i32, i8, i8 }
%struct.WOLFSSL_BUFFER_INFO = type { ptr, i32 }
%struct.WOLFSSL_ALERT_HISTORY = type { %struct.WOLFSSL_ALERT, %struct.WOLFSSL_ALERT }
%struct.WOLFSSL_ALERT = type { i32, i32 }
%struct.RecordLayerHeader = type { i8, i8, i8, [2 x i8] }
%struct.MsgsReceived = type { i32 }
%struct.ProtocolVersion = type { i8, i8 }
%struct.CipherSpecs = type { i16, i16, i16, i16, i8, i8, i8, i8, i8, i8, i8, i8 }
%struct.Keys = type { [64 x i8], [64 x i8], [32 x i8], [32 x i8], [16 x i8], [16 x i8], [8 x i8], [12 x i8], [12 x i8], i32, i32, i32, i32, i32, i32, i8, i8, i8, i8 }
%struct.Options = type { i64, i64, i8, i8, i8, i8, i8, i8, i8, i8, i8, i8, i8, i8, i8, i8, i8, i8, i8, i8, i8, i8, i8, i16, i16, i16, i16, i16, i8 }
%struct.OneTimeAuth = type { ptr, i8 }
%struct.HS_Hashes = type { %struct.Hashes, %struct.Hashes, %struct.wc_Sha, %struct.wc_Md5, [8 x i8], %struct.wc_Sha256, %struct.wc_Sha512, %struct.wc_Sha512 }
%struct.Hashes = type { [16 x i8], [20 x i8], [32 x i8], [48 x i8], [64 x i8] }
%struct.wc_Sha = type { i32, i32, i32, [16 x i32], [5 x i32], ptr }
%struct.wc_Md5 = type { i32, i32, i32, [16 x i32], [4 x i32], ptr }
%struct.wc_Sha256 = type { [8 x i32], [16 x i32], i32, i32, i32, ptr, [8 x i8] }
%struct.wc_Sha512 = type { [8 x i64], [16 x i64], i32, i64, i64, ptr }

@clientCertVfyLabel = internal constant [34 x i8] c"TLS 1.3, client CertificateVerify\00", align 16
@serverCertVfyLabel = internal constant [34 x i8] c"TLS 1.3, server CertificateVerify\00", align 16

; Function Attrs: inlinehint nounwind uwtable
define internal i32 @GetMsgHash(ptr noundef %0, ptr noundef %1) #4 {
  %3 = alloca ptr, align 8
  %4 = alloca ptr, align 8
  %5 = alloca i32, align 4
  store ptr %0, ptr %3, align 8, !tbaa !3
  store ptr %1, ptr %4, align 8, !tbaa !8
  call void @llvm.lifetime.start.p0(i64 4, ptr %5) #8
  store i32 0, ptr %5, align 4, !tbaa !10
  %6 = load ptr, ptr %3, align 8, !tbaa !3
  %7 = getelementptr inbounds nuw %struct.WOLFSSL, ptr %6, i32 0, i32 46
  %8 = getelementptr inbounds nuw %struct.CipherSpecs, ptr %7, i32 0, i32 6
  %9 = load i8, ptr %8, align 2, !tbaa !49
  %10 = zext i8 %9 to i32
  switch i32 %10, label %33 [
    i32 4, label %11
    i32 5, label %22
  ]

11:                                               ; preds = %2
  %12 = load ptr, ptr %3, align 8, !tbaa !3
  %13 = getelementptr inbounds nuw %struct.WOLFSSL, ptr %12, i32 0, i32 6
  %14 = load ptr, ptr %13, align 16, !tbaa !12
  %15 = getelementptr inbounds nuw %struct.HS_Hashes, ptr %14, i32 0, i32 5
  %16 = load ptr, ptr %4, align 8, !tbaa !8
  %17 = call i32 @wc_Sha256GetHash(ptr noundef %15, ptr noundef %16)
  store i32 %17, ptr %5, align 4, !tbaa !10
  %18 = load i32, ptr %5, align 4, !tbaa !10
  %19 = icmp eq i32 %18, 0
  br i1 %19, label %20, label %21

20:                                               ; preds = %11
  store i32 32, ptr %5, align 4, !tbaa !10
  br label %21

21:                                               ; preds = %20, %11
  br label %34

22:                                               ; preds = %2
  %23 = load ptr, ptr %3, align 8, !tbaa !3
  %24 = getelementptr inbounds nuw %struct.WOLFSSL, ptr %23, i32 0, i32 6
  %25 = load ptr, ptr %24, align 16, !tbaa !12
  %26 = getelementptr inbounds nuw %struct.HS_Hashes, ptr %25, i32 0, i32 6
  %27 = load ptr, ptr %4, align 8, !tbaa !8
  %28 = call i32 @wc_Sha384GetHash(ptr noundef %26, ptr noundef %27)
  store i32 %28, ptr %5, align 4, !tbaa !10
  %29 = load i32, ptr %5, align 4, !tbaa !10
  %30 = icmp eq i32 %29, 0
  br i1 %30, label %31, label %32

31:                                               ; preds = %22
  store i32 48, ptr %5, align 4, !tbaa !10
  br label %32

32:                                               ; preds = %31, %22
  br label %34

33:                                               ; preds = %2
  br label %34

34:                                               ; preds = %33, %32, %21
  %35 = load i32, ptr %5, align 4, !tbaa !10
  call void @llvm.lifetime.end.p0(i64 4, ptr %5) #8
  ret i32 %35
}

; Function Attrs: nounwind uwtable
define i32 @CreateSigData(ptr noundef %0, ptr noundef %1, ptr noundef %2, i32 noundef %3) #0 {
  %5 = alloca i32, align 4
  %6 = alloca ptr, align 8
  %7 = alloca ptr, align 8
  %8 = alloca ptr, align 8
  %9 = alloca i32, align 4
  %10 = alloca i16, align 2
  %11 = alloca i32, align 4
  %12 = alloca i32, align 4
  %13 = alloca i32, align 4
  store ptr %0, ptr %6, align 8, !tbaa !3
  store ptr %1, ptr %7, align 8, !tbaa !8
  store ptr %2, ptr %8, align 8, !tbaa !147
  store i32 %3, ptr %9, align 4, !tbaa !10
  call void @llvm.lifetime.start.p0(i64 2, ptr %10) #8
  call void @llvm.lifetime.start.p0(i64 4, ptr %11) #8
  %14 = load ptr, ptr %6, align 8, !tbaa !3
  %15 = getelementptr inbounds nuw %struct.WOLFSSL, ptr %14, i32 0, i32 49
  %16 = getelementptr inbounds nuw %struct.Options, ptr %15, i32 0, i32 1
  %17 = load i64, ptr %16, align 8
  %18 = lshr i64 %17, 4
  %19 = and i64 %18, 3
  %20 = trunc i64 %19 to i16
  %21 = zext i16 %20 to i32
  store i32 %21, ptr %11, align 4, !tbaa !10
  call void @llvm.lifetime.start.p0(i64 4, ptr %12) #8
  %22 = load ptr, ptr %7, align 8, !tbaa !8
  call void @llvm.memset.p0.i64(ptr align 1 %22, i8 32, i64 64, i1 false)
  store i16 64, ptr %10, align 2, !tbaa !66
  %23 = load i32, ptr %11, align 4, !tbaa !10
  %24 = icmp eq i32 %23, 0
  br i1 %24, label %25, label %28

25:                                               ; preds = %4
  %26 = load i32, ptr %9, align 4, !tbaa !10
  %27 = icmp ne i32 %26, 0
  br i1 %27, label %34, label %28

28:                                               ; preds = %25, %4
  %29 = load i32, ptr %11, align 4, !tbaa !10
  %30 = icmp eq i32 %29, 1
  br i1 %30, label %31, label %39

31:                                               ; preds = %28
  %32 = load i32, ptr %9, align 4, !tbaa !10
  %33 = icmp ne i32 %32, 0
  br i1 %33, label %39, label %34

34:                                               ; preds = %31, %25
  %35 = load ptr, ptr %7, align 8, !tbaa !8
  %36 = load i16, ptr %10, align 2, !tbaa !66
  %37 = zext i16 %36 to i64
  %38 = getelementptr inbounds nuw i8, ptr %35, i64 %37
  call void @llvm.memcpy.p0.p0.i64(ptr align 1 %38, ptr align 16 @clientCertVfyLabel, i64 34, i1 false)
  br label %39

39:                                               ; preds = %34, %31, %28
  %40 = load i32, ptr %11, align 4, !tbaa !10
  %41 = icmp eq i32 %40, 1
  br i1 %41, label %42, label %45

42:                                               ; preds = %39
  %43 = load i32, ptr %9, align 4, !tbaa !10
  %44 = icmp ne i32 %43, 0
  br i1 %44, label %51, label %45

45:                                               ; preds = %42, %39
  %46 = load i32, ptr %11, align 4, !tbaa !10
  %47 = icmp eq i32 %46, 0
  br i1 %47, label %48, label %56

48:                                               ; preds = %45
  %49 = load i32, ptr %9, align 4, !tbaa !10
  %50 = icmp ne i32 %49, 0
  br i1 %50, label %56, label %51

51:                                               ; preds = %48, %42
  %52 = load ptr, ptr %7, align 8, !tbaa !8
  %53 = load i16, ptr %10, align 2, !tbaa !66
  %54 = zext i16 %53 to i64
  %55 = getelementptr inbounds nuw i8, ptr %52, i64 %54
  call void @llvm.memcpy.p0.p0.i64(ptr align 1 %55, ptr align 16 @serverCertVfyLabel, i64 34, i1 false)
  br label %56

56:                                               ; preds = %51, %48, %45
  %57 = load i16, ptr %10, align 2, !tbaa !66
  %58 = zext i16 %57 to i32
  %59 = add nsw i32 %58, 34
  %60 = trunc i32 %59 to i16
  store i16 %60, ptr %10, align 2, !tbaa !66
  %61 = load ptr, ptr %6, align 8, !tbaa !3
  %62 = load ptr, ptr %7, align 8, !tbaa !8
  %63 = load i16, ptr %10, align 2, !tbaa !66
  %64 = zext i16 %63 to i64
  %65 = getelementptr inbounds nuw i8, ptr %62, i64 %64
  %66 = call i32 @GetMsgHash(ptr noundef %61, ptr noundef %65)
  store i32 %66, ptr %12, align 4, !tbaa !10
  %67 = load i32, ptr %12, align 4, !tbaa !10
  %68 = icmp slt i32 %67, 0
  br i1 %68, label %69, label %71

69:                                               ; preds = %56
  %70 = load i32, ptr %12, align 4, !tbaa !10
  store i32 %70, ptr %5, align 4
  store i32 1, ptr %13, align 4
  br label %79

71:                                               ; preds = %56
  %72 = load i16, ptr %10, align 2, !tbaa !66
  %73 = zext i16 %72 to i32
  %74 = load i32, ptr %12, align 4, !tbaa !10
  %75 = add nsw i32 %73, %74
  %76 = trunc i32 %75 to i16
  %77 = load ptr, ptr %8, align 8, !tbaa !147
  store i16 %76, ptr %77, align 2, !tbaa !66
  store i32 0, ptr %12, align 4, !tbaa !10
  %78 = load i32, ptr %12, align 4, !tbaa !10
  store i32 %78, ptr %5, align 4
  store i32 1, ptr %13, align 4
  br label %79

79:                                               ; preds = %71, %69
  call void @llvm.lifetime.end.p0(i64 4, ptr %12) #8
  call void @llvm.lifetime.end.p0(i64 4, ptr %11) #8
  call void @llvm.lifetime.end.p0(i64 2, ptr %10) #8
  %80 = load i32, ptr %5, align 4
  ret i32 %80
}