; Function Attrs: nounwind uwtable
define range(i32 -2147483648, 1) i32 @CreateSigData(ptr noundef readonly captures(none) %0, ptr noundef initializes((0, 64)) %1, ptr noundef writeonly captures(none) %2, i32 noundef %3) local_unnamed_addr #0 {
  %5 = getelementptr inbounds nuw i8, ptr %0, i64 1024
  %6 = load i64, ptr %5, align 8
  %7 = trunc i64 %6 to i32
  %8 = lshr i32 %7, 4
  %9 = and i32 %8, 3
  tail call void @llvm.memset.p0.i64(ptr noundef nonnull align 1 dereferenceable(64) %1, i8 32, i64 64, i1 false)
  %10 = icmp ne i32 %3, 0
  %not. = xor i1 %10, true
  %or.cond32.v = zext i1 %not. to i32
  %or.cond32.not = icmp eq i32 %9, %or.cond32.v
  br i1 %or.cond32.not, label %11, label %13

11:                                               ; preds = %4
  %12 = getelementptr inbounds nuw i8, ptr %1, i64 64
  tail call void @llvm.memcpy.p0.p0.i64(ptr noundef nonnull align 1 dereferenceable(34) %12, ptr noundef nonnull align 16 dereferenceable(34) @clientCertVfyLabel, i64 34, i1 false)
  br label %13

13:                                               ; preds = %4, %11
  %14 = icmp eq i32 %9, 1
  %or.cond5 = and i1 %10, %14
  %15 = or i32 %9, %3
  %or.cond7.not = icmp eq i32 %15, 0
  %or.cond33 = or i1 %or.cond5, %or.cond7.not
  br i1 %or.cond33, label %16, label %18

16:                                               ; preds = %13
  %17 = getelementptr inbounds nuw i8, ptr %1, i64 64
  tail call void @llvm.memcpy.p0.p0.i64(ptr noundef nonnull align 1 dereferenceable(34) %17, ptr noundef nonnull align 16 dereferenceable(34) @serverCertVfyLabel, i64 34, i1 false)
  br label %18

18:                                               ; preds = %13, %16
  %19 = getelementptr inbounds nuw i8, ptr %1, i64 98
  %20 = getelementptr inbounds nuw i8, ptr %0, i64 724
  %21 = load i8, ptr %20, align 2, !tbaa !46
  switch i8 %21, label %GetMsgHash.exit.thread [
    i8 4, label %22
    i8 5, label %28
  ]

22:                                               ; preds = %18
  %23 = getelementptr inbounds nuw i8, ptr %0, i64 128
  %24 = load ptr, ptr %23, align 16, !tbaa !3
  %25 = getelementptr inbounds nuw i8, ptr %24, i64 576
  %26 = tail call i32 @wc_Sha256GetHash(ptr noundef nonnull %25, ptr noundef nonnull %19) #11
  %27 = icmp eq i32 %26, 0
  br i1 %27, label %GetMsgHash.exit.thread, label %GetMsgHash.exit

28:                                               ; preds = %18
  %29 = getelementptr inbounds nuw i8, ptr %0, i64 128
  %30 = load ptr, ptr %29, align 16, !tbaa !3
  %31 = getelementptr inbounds nuw i8, ptr %30, i64 704
  %32 = tail call i32 @wc_Sha384GetHash(ptr noundef nonnull %31, ptr noundef nonnull %19) #11
  %33 = icmp eq i32 %32, 0
  br i1 %33, label %GetMsgHash.exit.thread, label %GetMsgHash.exit

GetMsgHash.exit:                                  ; preds = %22, %28
  %.0.i = phi i32 [ %32, %28 ], [ %26, %22 ]
  %34 = icmp slt i32 %.0.i, 0
  br i1 %34, label %37, label %GetMsgHash.exit.thread

GetMsgHash.exit.thread:                           ; preds = %22, %28, %18, %GetMsgHash.exit
  %.0.i36 = phi i32 [ %.0.i, %GetMsgHash.exit ], [ 0, %18 ], [ 48, %28 ], [ 32, %22 ]
  %35 = trunc i32 %.0.i36 to i16
  %36 = add i16 %35, 98
  store i16 %36, ptr %2, align 2, !tbaa !119
  br label %37

37:                                               ; preds = %GetMsgHash.exit, %GetMsgHash.exit.thread
  %.0 = phi i32 [ 0, %GetMsgHash.exit.thread ], [ %.0.i, %GetMsgHash.exit ]
  ret i32 %.0
}